; Function Attrs: nounwind uwtable
define dso_local i64 @be_lo_lseek64(ptr noundef readonly captures(none) %0) local_unnamed_addr #0 {
  %2 = getelementptr inbounds nuw i8, ptr %0, i64 32
  %3 = load i64, ptr %2, align 8
  %4 = trunc i64 %3 to i32
  %5 = getelementptr inbounds nuw i8, ptr %0, i64 48
  %6 = load i64, ptr %5, align 8
  %7 = getelementptr inbounds nuw i8, ptr %0, i64 64
  %8 = load i64, ptr %7, align 8
  %9 = icmp sgt i32 %4, -1
  %10 = load i32, ptr @cookies_size, align 4
  %.not = icmp sgt i32 %10, %4
  %or.cond = select i1 %9, i1 %.not, i1 false
  br i1 %or.cond, label %11, label %17

11:                                               ; preds = %1
  %12 = load ptr, ptr @cookies, align 8
  %13 = and i64 %3, 2147483647
  %14 = getelementptr inbounds nuw ptr, ptr %12, i64 %13
  %15 = load ptr, ptr %14, align 8
  %16 = icmp eq ptr %15, null
  br i1 %16, label %17, label %21

17:                                               ; preds = %11, %1
  %18 = tail call zeroext i1 @errstart_cold(i32 noundef 21, ptr noundef null) #11
  tail call void @llvm.assume(i1 %18)
  %19 = tail call i32 @errcode(i32 noundef 67137668) #10
  %20 = tail call i32 (ptr, ...) @errmsg(ptr noundef nonnull @.str.1, i32 noundef %4) #10
  tail call void @errfinish(ptr noundef nonnull @.str.2, i32 noundef 241, ptr noundef nonnull @__func__.be_lo_lseek64) #10
  unreachable

21:                                               ; preds = %11
  %22 = trunc i64 %8 to i32
  %23 = tail call i64 @inv_seek(ptr noundef nonnull %15, i64 noundef %6, i32 noundef %22) #10
  ret i64 %23
}